target datalayout = "e-m:e-p270:32:32-p271:32:32-p272:64:64-i64:64-i128:128-f80:128-n8:16:32:64-S128"
target triple = "x86_64-pc-linux-gnu"

%struct.sockaddr_storage = type { i16, [118 x i8], i64 }
%struct.forward = type { %struct.slurm_node_alias_addrs_t, i16, i16, ptr, i32, i16, i16 }
%struct.slurm_node_alias_addrs_t = type { i64, ptr, ptr, i32, ptr }
%struct.slurm_msg = type { %struct.sockaddr_storage, ptr, i32, i32, i32, i8, i32, i8, i32, ptr, ptr, i32, ptr, ptr, i16, i8, i16, i16, %struct.forward, ptr, %struct.sockaddr_storage, ptr }
%struct.persist_conn_t = type { ptr, i32, i32, i8, ptr, ptr, ptr, i64, i16, i32, i16, i8, i32, i32, ptr, i16, ptr, i64, i32, ptr, %struct.slurm_trigger_callbacks_t, i16 }
%struct.slurm_trigger_callbacks_t = type { ptr, ptr, ptr, ptr, ptr }

; Function Attrs: nounwind uwtable
define dso_local i32 @slurm_send_recv_msg(i32 noundef %0, ptr noundef %1, ptr noundef %2, i32 noundef %3) #0 {
  %5 = alloca i32, align 4
  %6 = alloca i32, align 4
  %7 = alloca ptr, align 8
  %8 = alloca ptr, align 8
  %9 = alloca i32, align 4
  store i32 %0, ptr %6, align 4
  store ptr %1, ptr %7, align 8
  store ptr %2, ptr %8, align 8
  store i32 %3, ptr %9, align 4
  %10 = load ptr, ptr %8, align 8
  call void @slurm_msg_t_init(ptr noundef %10)
  %11 = load ptr, ptr %7, align 8
  %12 = getelementptr inbounds nuw %struct.slurm_msg, ptr %11, i32 0, i32 10
  %13 = load ptr, ptr %12, align 8
  %14 = icmp ne ptr %13, null
  br i1 %14, label %15, label %26

15:                                               ; preds = %4
  %16 = load ptr, ptr %7, align 8
  %17 = getelementptr inbounds nuw %struct.slurm_msg, ptr %16, i32 0, i32 10
  %18 = load ptr, ptr %17, align 8
  %19 = getelementptr inbounds nuw %struct.persist_conn_t, ptr %18, i32 0, i32 9
  %20 = load i32, ptr %19, align 4
  store i32 %20, ptr %6, align 4
  %21 = load ptr, ptr %7, align 8
  %22 = getelementptr inbounds nuw %struct.slurm_msg, ptr %21, i32 0, i32 10
  %23 = load ptr, ptr %22, align 8
  %24 = load ptr, ptr %8, align 8
  %25 = getelementptr inbounds nuw %struct.slurm_msg, ptr %24, i32 0, i32 10
  store ptr %23, ptr %25, align 8
  br label %26

26:                                               ; preds = %15, %4
  %27 = load i32, ptr %6, align 4
  %28 = load ptr, ptr %7, align 8
  %29 = call i32 @slurm_send_node_msg(i32 noundef %27, ptr noundef %28)
  %30 = icmp slt i32 %29, 0
  br i1 %30, label %31, label %32

31:                                               ; preds = %26
  store i32 -1, ptr %5, align 4
  br label %40

32:                                               ; preds = %26
  %33 = load i32, ptr %6, align 4
  %34 = load ptr, ptr %8, align 8
  %35 = load i32, ptr %9, align 4
  %36 = call i32 @slurm_receive_msg(i32 noundef %33, ptr noundef %34, i32 noundef %35)
  %37 = icmp ne i32 %36, 0
  br i1 %37, label %38, label %39

38:                                               ; preds = %32
  store i32 -1, ptr %5, align 4
  br label %40

39:                                               ; preds = %32
  store i32 0, ptr %5, align 4
  br label %40

40:                                               ; preds = %39, %38, %31
  %41 = load i32, ptr %5, align 4
  ret i32 %41
}