; Function Attrs: nounwind uwtable
define dso_local range(i32 -1, 1) i32 @slurm_send_recv_msg(i32 noundef %0, ptr noundef %1, ptr noundef %2, i32 noundef %3) local_unnamed_addr #1 {
  tail call void @slurm_msg_t_init(ptr noundef %2) #19
  %5 = getelementptr inbounds nuw i8, ptr %1, i64 176
  %6 = load ptr, ptr %5, align 8
  %.not = icmp eq ptr %6, null
  br i1 %.not, label %11, label %7

7:                                                ; preds = %4
  %8 = getelementptr inbounds nuw i8, ptr %6, i64 60
  %9 = load i32, ptr %8, align 4
  %10 = getelementptr inbounds nuw i8, ptr %2, i64 176
  store ptr %6, ptr %10, align 8
  br label %11

11:                                               ; preds = %7, %4
  %.010 = phi i32 [ %9, %7 ], [ %0, %4 ]
  %12 = tail call i32 @slurm_send_node_msg(i32 noundef %.010, ptr noundef nonnull %1)
  %13 = icmp slt i32 %12, 0
  br i1 %13, label %16, label %14

14:                                               ; preds = %11
  %15 = tail call i32 @slurm_receive_msg(i32 noundef %.010, ptr noundef %2, i32 noundef %3)
  %.not12 = icmp ne i32 %15, 0
  %. = sext i1 %.not12 to i32
  br label %16

16:                                               ; preds = %14, %11
  %.0 = phi i32 [ -1, %11 ], [ %., %14 ]
  ret i32 %.0
}